; Function Attrs: mustprogress nofree norecurse nosync nounwind willreturn memory(argmem: readwrite) uwtable
define internal range(i32 -1, 60) i32 @prolog2(ptr noundef captures(none) %0, i32 noundef %1, ptr readnone captures(none) %2, ptr readnone captures(none) %3, ptr readnone captures(none) %4) #2 {
  %6 = add i32 %1, -11
  %7 = tail call i32 @llvm.fshl.i32(i32 %6, i32 %6, i32 31)
  switch i32 %7, label %11 [
    i32 2, label %common.exit
    i32 0, label %8
    i32 1, label %9
    i32 9, label %10
  ]

8:                                                ; preds = %5
  br label %common.exit

9:                                                ; preds = %5
  br label %common.exit

10:                                               ; preds = %5
  store ptr @error, ptr %0, align 8, !tbaa !3
  br label %common.exit

11:                                               ; preds = %5
  %12 = getelementptr inbounds nuw i8, ptr %0, i64 20
  %13 = load i32, ptr %12, align 4, !tbaa !9
  %14 = icmp eq i32 %13, 0
  %15 = icmp eq i32 %1, 28
  %or.cond.i = and i1 %15, %14
  br i1 %or.cond.i, label %common.exit, label %16

16:                                               ; preds = %11
  store ptr @error, ptr %0, align 8, !tbaa !3
  br label %common.exit

common.exit:                                      ; preds = %16, %11, %5, %10, %9, %8
  %.0 = phi i32 [ 2, %10 ], [ 56, %9 ], [ 55, %8 ], [ 0, %5 ], [ -1, %16 ], [ 59, %11 ]
  ret i32 %.0
}